(lp1
I80
aI88
aI49
aI58
aI127
aI77
aI35
aI71
aI19
aI97
aI145
aI123
aI122
aI103
aI15
aI137
aI52
aI32
aI138
aI207
aI150
aI31
aI278
aI272
aI82
aI132
aI11
aI232
aI94
aI110
aI55
aI174
aI109
aI38
aI136
aI190
aI187
a.